; Function Attrs: nofree norecurse nosync nounwind memory(readwrite, inaccessiblemem: none) uwtable
define internal void @Blit4bto3Key(ptr noundef readonly captures(none) %0) #1 {
  %2 = getelementptr inbounds nuw i8, ptr %0, i64 48
  %3 = load i32, ptr %2, align 8
  %4 = getelementptr inbounds nuw i8, ptr %0, i64 52
  %5 = load i32, ptr %4, align 4
  %6 = getelementptr inbounds nuw i8, ptr %0, i64 8
  %7 = load ptr, ptr %6, align 8
  %8 = getelementptr inbounds nuw i8, ptr %0, i64 40
  %9 = load ptr, ptr %8, align 8
  %10 = getelementptr inbounds nuw i8, ptr %0, i64 28
  %11 = load i32, ptr %10, align 4
  %12 = getelementptr inbounds nuw i8, ptr %0, i64 60
  %13 = load i32, ptr %12, align 4
  %14 = getelementptr inbounds nuw i8, ptr %0, i64 116
  %15 = load i32, ptr %14, align 4
  %16 = getelementptr inbounds nuw i8, ptr %0, i64 96
  %17 = load ptr, ptr %16, align 8
  %18 = add nsw i32 %3, 1
  %.neg82.i = sdiv i32 %18, -2
  %19 = add i32 %.neg82.i, %3
  %20 = add nsw i32 %19, %11
  %21 = getelementptr inbounds nuw i8, ptr %0, i64 64
  %22 = load ptr, ptr %21, align 8
  %23 = load i32, ptr %22, align 4
  %24 = and i32 %23, 15728640
  %25 = icmp eq i32 %24, 1048576
  %.not85.i18 = icmp eq i32 %5, 0
  br i1 %25, label %.preheader1, label %.preheader3

.preheader3:                                      ; preds = %1
  br i1 %.not85.i18, label %BlitBto3Key.exit, label %.preheader2.lr.ph

.preheader2.lr.ph:                                ; preds = %.preheader3
  %26 = icmp sgt i32 %3, 0
  %27 = sext i32 %20 to i64
  %28 = sext i32 %13 to i64
  br i1 %26, label %.preheader2.us, label %BlitBto3Key.exit

.preheader2.us:                                   ; preds = %.preheader2.lr.ph, %._crit_edge.us
  %.in = phi i32 [ %29, %._crit_edge.us ], [ %5, %.preheader2.lr.ph ]
  %.3.i12.us = phi ptr [ %46, %._crit_edge.us ], [ %7, %.preheader2.lr.ph ]
  %.275.i11.us = phi ptr [ %47, %._crit_edge.us ], [ %9, %.preheader2.lr.ph ]
  %29 = add nsw i32 %.in, -1
  br label %30

30:                                               ; preds = %.preheader2.us, %42
  %.065.i8.us = phi i8 [ 0, %.preheader2.us ], [ %43, %42 ]
  %.4.i7.us = phi ptr [ %.3.i12.us, %.preheader2.us ], [ %.5.i.us, %42 ]
  %.172.i6.us = phi i32 [ 0, %.preheader2.us ], [ %45, %42 ]
  %.376.i5.us = phi ptr [ %.275.i11.us, %.preheader2.us ], [ %44, %42 ]
  %31 = and i32 %.172.i6.us, 1
  %.not83.i.us = icmp eq i32 %31, 0
  br i1 %.not83.i.us, label %32, label %35

32:                                               ; preds = %30
  %33 = getelementptr inbounds nuw i8, ptr %.4.i7.us, i64 1
  %34 = load i8, ptr %.4.i7.us, align 1
  br label %35

35:                                               ; preds = %32, %30
  %.5.i.us = phi ptr [ %.4.i7.us, %30 ], [ %33, %32 ]
  %.166.i.us = phi i8 [ %.065.i8.us, %30 ], [ %34, %32 ]
  %36 = lshr i8 %.166.i.us, 4
  %37 = zext nneg i8 %36 to i32
  %.not84.i.us = icmp eq i32 %15, %37
  br i1 %.not84.i.us, label %42, label %38

38:                                               ; preds = %35
  %39 = shl nuw nsw i32 %37, 2
  %40 = zext nneg i32 %39 to i64
  %41 = getelementptr inbounds nuw i8, ptr %17, i64 %40
  tail call void @llvm.memcpy.p0.p0.i64(ptr noundef nonnull align 1 dereferenceable(3) %.376.i5.us, ptr noundef nonnull align 1 dereferenceable(3) %41, i64 3, i1 false)
  br label %42

42:                                               ; preds = %38, %35
  %43 = shl i8 %.166.i.us, 4
  %44 = getelementptr inbounds nuw i8, ptr %.376.i5.us, i64 3
  %45 = add nuw nsw i32 %.172.i6.us, 1
  %exitcond.not = icmp eq i32 %45, %3
  br i1 %exitcond.not, label %._crit_edge.us, label %30, !llvm.loop !44

._crit_edge.us:                                   ; preds = %42
  %46 = getelementptr inbounds i8, ptr %.5.i.us, i64 %27
  %47 = getelementptr inbounds i8, ptr %44, i64 %28
  %.not.i.us = icmp eq i32 %29, 0
  br i1 %.not.i.us, label %BlitBto3Key.exit, label %.preheader2.us, !llvm.loop !45

.preheader1:                                      ; preds = %1
  br i1 %.not85.i18, label %BlitBto3Key.exit, label %.preheader.lr.ph

.preheader.lr.ph:                                 ; preds = %.preheader1
  %48 = icmp sgt i32 %3, 0
  %49 = sext i32 %20 to i64
  %50 = sext i32 %13 to i64
  br i1 %48, label %.preheader.us, label %BlitBto3Key.exit

.preheader.us:                                    ; preds = %.preheader.lr.ph, %._crit_edge.us21
  %.in28 = phi i32 [ %51, %._crit_edge.us21 ], [ %5, %.preheader.lr.ph ]
  %.067.i20.us = phi ptr [ %68, %._crit_edge.us21 ], [ %7, %.preheader.lr.ph ]
  %.073.i19.us = phi ptr [ %69, %._crit_edge.us21 ], [ %9, %.preheader.lr.ph ]
  %51 = add nsw i32 %.in28, -1
  br label %52

52:                                               ; preds = %.preheader.us, %64
  %.168.i16.us = phi ptr [ %.067.i20.us, %.preheader.us ], [ %.2.i.us, %64 ]
  %.069.i15.us = phi i8 [ 0, %.preheader.us ], [ %65, %64 ]
  %.071.i14.us = phi i32 [ 0, %.preheader.us ], [ %67, %64 ]
  %.174.i13.us = phi ptr [ %.073.i19.us, %.preheader.us ], [ %66, %64 ]
  %53 = and i32 %.071.i14.us, 1
  %.not86.i.us = icmp eq i32 %53, 0
  br i1 %.not86.i.us, label %54, label %57

54:                                               ; preds = %52
  %55 = getelementptr inbounds nuw i8, ptr %.168.i16.us, i64 1
  %56 = load i8, ptr %.168.i16.us, align 1
  br label %57

57:                                               ; preds = %54, %52
  %.170.i.us = phi i8 [ %.069.i15.us, %52 ], [ %56, %54 ]
  %.2.i.us = phi ptr [ %.168.i16.us, %52 ], [ %55, %54 ]
  %58 = and i8 %.170.i.us, 15
  %59 = zext nneg i8 %58 to i32
  %.not87.i.us = icmp eq i32 %15, %59
  br i1 %.not87.i.us, label %64, label %60

60:                                               ; preds = %57
  %61 = shl nuw nsw i32 %59, 2
  %62 = zext nneg i32 %61 to i64
  %63 = getelementptr inbounds nuw i8, ptr %17, i64 %62
  tail call void @llvm.memcpy.p0.p0.i64(ptr noundef nonnull align 1 dereferenceable(3) %.174.i13.us, ptr noundef nonnull align 1 dereferenceable(3) %63, i64 3, i1 false)
  br label %64

64:                                               ; preds = %60, %57
  %65 = lshr i8 %.170.i.us, 4
  %66 = getelementptr inbounds nuw i8, ptr %.174.i13.us, i64 3
  %67 = add nuw nsw i32 %.071.i14.us, 1
  %exitcond27.not = icmp eq i32 %67, %3
  br i1 %exitcond27.not, label %._crit_edge.us21, label %52, !llvm.loop !46

._crit_edge.us21:                                 ; preds = %64
  %68 = getelementptr inbounds i8, ptr %.2.i.us, i64 %49
  %69 = getelementptr inbounds i8, ptr %66, i64 %50
  %.not85.i.us = icmp eq i32 %51, 0
  br i1 %.not85.i.us, label %BlitBto3Key.exit, label %.preheader.us, !llvm.loop !47

BlitBto3Key.exit:                                 ; preds = %._crit_edge.us, %._crit_edge.us21, %.preheader.lr.ph, %.preheader2.lr.ph, %.preheader3, %.preheader1
  ret void
}